target datalayout = "e-m:e-p270:32:32-p271:32:32-p272:64:64-i64:64-i128:128-f80:128-n8:16:32:64-S128"
target triple = "x86_64-pc-linux-gnu"

%class.Register = type { i32 }

@_ZN23CompressedKlassPointers5_baseE = external global ptr, align 8
@_ZN23CompressedKlassPointers6_shiftE = external global i32, align 4

; Function Attrs: mustprogress nounwind uwtable
define linkonce_odr hidden noundef ptr @_ZN23CompressedKlassPointers4baseEv() #1 comdat align 2 {
  %1 = load ptr, ptr @_ZN23CompressedKlassPointers5_baseE, align 8
  ret ptr %1
}

; Function Attrs: mustprogress nounwind uwtable
define linkonce_odr hidden noundef i32 @_ZN23CompressedKlassPointers5shiftEv() #1 comdat align 2 {
  %1 = load i32, ptr @_ZN23CompressedKlassPointers6_shiftE, align 4
  ret i32 %1
}

; Function Attrs: mustprogress nounwind uwtable
define linkonce_odr hidden void @_Z26assert_different_registersI8RegisterJS0_EEvT_DpT0_(i32 %0, i32 %1) #1 comdat {
  %3 = alloca %class.Register, align 4
  %4 = alloca %class.Register, align 4
  %5 = getelementptr inbounds %class.Register, ptr %3, i32 0, i32 0
  store i32 %0, ptr %5, align 4
  %6 = getelementptr inbounds %class.Register, ptr %4, i32 0, i32 0
  store i32 %1, ptr %6, align 4
  ret void
}

; Function Attrs: mustprogress nounwind uwtable
define hidden void @_ZN14MacroAssembler21decode_klass_not_nullE8RegisterS0_(ptr noundef nonnull align 8 dereferenceable(40) %0, i32 %1, i32 %2) #1 align 2 {
  %4 = alloca %class.Register, align 4
  %5 = alloca %class.Register, align 4
  %6 = alloca ptr, align 8
  %7 = alloca %class.Register, align 4
  %8 = alloca %class.Register, align 4
  %9 = alloca %class.Register, align 4
  %10 = alloca %class.Register, align 4
  %11 = alloca %class.Register, align 4
  %12 = alloca %class.Register, align 4
  %13 = getelementptr inbounds %class.Register, ptr %4, i32 0, i32 0
  store i32 %1, ptr %13, align 4
  %14 = getelementptr inbounds %class.Register, ptr %5, i32 0, i32 0
  store i32 %2, ptr %14, align 4
  store ptr %0, ptr %6, align 8
  %15 = load ptr, ptr %6, align 8
  call void @llvm.memcpy.p0.p0.i64(ptr align 4 %7, ptr align 4 %4, i64 4, i1 false)
  call void @llvm.memcpy.p0.p0.i64(ptr align 4 %8, ptr align 4 %5, i64 4, i1 false)
  %16 = getelementptr inbounds %class.Register, ptr %7, i32 0, i32 0
  %17 = load i32, ptr %16, align 4
  %18 = getelementptr inbounds %class.Register, ptr %8, i32 0, i32 0
  %19 = load i32, ptr %18, align 4
  call void @_Z26assert_different_registersI8RegisterJS0_EEvT_DpT0_(i32 %17, i32 %19)
  %20 = call noundef i32 @_ZN23CompressedKlassPointers5shiftEv()
  %21 = icmp ne i32 %20, 0
  br i1 %21, label %22, label %25

22:                                               ; preds = %3
  call void @llvm.memcpy.p0.p0.i64(ptr align 4 %9, ptr align 4 %4, i64 4, i1 false)
  %23 = getelementptr inbounds %class.Register, ptr %9, i32 0, i32 0
  %24 = load i32, ptr %23, align 4
  call void @_ZN9Assembler4shlqE8Registeri(ptr noundef nonnull align 8 dereferenceable(40) %15, i32 %24, i32 noundef 3)
  br label %25

25:                                               ; preds = %22, %3
  %26 = call noundef ptr @_ZN23CompressedKlassPointers4baseEv()
  %27 = icmp ne ptr %26, null
  br i1 %27, label %28, label %37

28:                                               ; preds = %25
  call void @llvm.memcpy.p0.p0.i64(ptr align 4 %10, ptr align 4 %5, i64 4, i1 false)
  %29 = call noundef ptr @_ZN23CompressedKlassPointers4baseEv()
  %30 = ptrtoint ptr %29 to i64
  %31 = getelementptr inbounds %class.Register, ptr %10, i32 0, i32 0
  %32 = load i32, ptr %31, align 4
  call void @_ZN9Assembler5mov64E8Registerl(ptr noundef nonnull align 8 dereferenceable(40) %15, i32 %32, i64 noundef %30)
  call void @llvm.memcpy.p0.p0.i64(ptr align 4 %11, ptr align 4 %4, i64 4, i1 false)
  call void @llvm.memcpy.p0.p0.i64(ptr align 4 %12, ptr align 4 %5, i64 4, i1 false)
  %33 = getelementptr inbounds %class.Register, ptr %11, i32 0, i32 0
  %34 = load i32, ptr %33, align 4
  %35 = getelementptr inbounds %class.Register, ptr %12, i32 0, i32 0
  %36 = load i32, ptr %35, align 4
  call void @_ZN9Assembler4addqE8RegisterS0_(ptr noundef nonnull align 8 dereferenceable(40) %15, i32 %34, i32 %36)
  br label %37

37:                                               ; preds = %28, %25
  ret void
}