; Function Attrs: mustprogress nounwind uwtable
define hidden void @_ZN14MacroAssembler21decode_klass_not_nullE8RegisterS0_(ptr noundef nonnull align 8 dereferenceable(40) %0, i32 %1, i32 %2) local_unnamed_addr #0 align 2 {
  %4 = load i32, ptr @_ZN23CompressedKlassPointers6_shiftE, align 4
  %.not = icmp eq i32 %4, 0
  br i1 %.not, label %6, label %5

5:                                                ; preds = %3
  tail call void @_ZN9Assembler4shlqE8Registeri(ptr noundef nonnull align 8 dereferenceable(40) %0, i32 %1, i32 noundef 3) #18
  br label %6

6:                                                ; preds = %5, %3
  %7 = load ptr, ptr @_ZN23CompressedKlassPointers5_baseE, align 8
  %.not12 = icmp eq ptr %7, null
  br i1 %.not12, label %10, label %8

8:                                                ; preds = %6
  %9 = ptrtoint ptr %7 to i64
  tail call void @_ZN9Assembler5mov64E8Registerl(ptr noundef nonnull align 8 dereferenceable(40) %0, i32 %2, i64 noundef %9) #18
  tail call void @_ZN9Assembler4addqE8RegisterS0_(ptr noundef nonnull align 8 dereferenceable(40) %0, i32 %1, i32 %2) #18
  br label %10

10:                                               ; preds = %8, %6
  ret void
}